; ModuleID = 'source-C-CXX/48/843.cpp'
source_filename = "source-C-CXX/48/843.cpp"
target datalayout = "e-m:e-p270:32:32-p271:32:32-p272:64:64-i64:64-f80:128-n8:16:32:64-S128"
target triple = "x86_64-pc-linux-gnu"

%"class.std::ios_base::Init" = type { i8 }
%"class.std::basic_istream" = type { i32 (...)**, i64, %"class.std::basic_ios" }
%"class.std::basic_ios" = type { %"class.std::ios_base", %"class.std::basic_ostream"*, i8, i8, %"class.std::basic_streambuf"*, %"class.std::ctype"*, %"class.std::num_put"*, %"class.std::num_get"* }
%"class.std::ios_base" = type { i32 (...)**, i64, i64, i32, i32, i32, %"struct.std::ios_base::_Callback_list"*, %"struct.std::ios_base::_Words", [8 x %"struct.std::ios_base::_Words"], i32, %"struct.std::ios_base::_Words"*, %"class.std::locale" }
%"struct.std::ios_base::_Callback_list" = type { %"struct.std::ios_base::_Callback_list"*, void (i32, %"class.std::ios_base"*, i32)*, i32, i32 }
%"struct.std::ios_base::_Words" = type { i8*, i64 }
%"class.std::locale" = type { %"class.std::locale::_Impl"* }
%"class.std::locale::_Impl" = type { i32, %"class.std::locale::facet"**, i64, %"class.std::locale::facet"**, i8** }
%"class.std::locale::facet" = type <{ i32 (...)**, i32, [4 x i8] }>
%"class.std::basic_ostream" = type { i32 (...)**, %"class.std::basic_ios" }
%"class.std::basic_streambuf" = type { i32 (...)**, i8*, i8*, i8*, i8*, i8*, i8*, %"class.std::locale" }
%"class.std::ctype" = type <{ %"class.std::locale::facet.base", [4 x i8], %struct.__locale_struct*, i8, [7 x i8], i32*, i32*, i16*, i8, [256 x i8], [256 x i8], i8, [6 x i8] }>
%"class.std::locale::facet.base" = type <{ i32 (...)**, i32 }>
%struct.__locale_struct = type { [13 x %struct.__locale_data*], i16*, i32*, i32*, [13 x i8*] }
%struct.__locale_data = type opaque
%"class.std::num_put" = type { %"class.std::locale::facet.base", [4 x i8] }
%"class.std::num_get" = type { %"class.std::locale::facet.base", [4 x i8] }

@_ZStL8__ioinit = internal global %"class.std::ios_base::Init" zeroinitializer, align 1
@__dso_handle = external hidden global i8
@_ZSt3cin = external global %"class.std::basic_istream", align 8
@_ZSt4cout = external global %"class.std::basic_ostream", align 8
@llvm.global_ctors = appending global [1 x { i32, void ()*, i8* }] [{ i32, void ()*, i8* } { i32 65535, void ()* @_GLOBAL__sub_I_843.cpp, i8* null }]

declare void @_ZNSt8ios_base4InitC1Ev(%"class.std::ios_base::Init"* nonnull align 1 dereferenceable(1)) unnamed_addr #0

; Function Attrs: nounwind
declare void @_ZNSt8ios_base4InitD1Ev(%"class.std::ios_base::Init"* nonnull align 1 dereferenceable(1)) unnamed_addr #1

; Function Attrs: nofree nounwind
declare i32 @__cxa_atexit(void (i8*)*, i8*, i8*) local_unnamed_addr #2

; Function Attrs: mustprogress norecurse sspstrong uwtable
define dso_local i32 @main() local_unnamed_addr #3 {
  %1 = alloca [500 x i8], align 16
  %2 = alloca [500 x i8], align 16
  %3 = getelementptr inbounds [500 x i8], [500 x i8]* %1, i64 0, i64 0
  call void @llvm.lifetime.start.p0i8(i64 500, i8* nonnull %3) #9
  %4 = getelementptr inbounds [500 x i8], [500 x i8]* %2, i64 0, i64 0
  call void @llvm.lifetime.start.p0i8(i64 500, i8* nonnull %4) #9
  call void @llvm.memset.p0i8.i64(i8* noundef nonnull align 16 dereferenceable(500) %4, i8 0, i64 500, i1 false)
  store i8 48, i8* %4, align 16
  call void @_ZSt17__istream_extractRSiPcl(%"class.std::basic_istream"* nonnull align 8 dereferenceable(16) @_ZSt3cin, i8* nonnull %3, i64 500)
  %5 = call i64 @strlen(i8* noundef nonnull %3) #10
  %6 = trunc i64 %5 to i32
  %7 = icmp slt i32 %6, 2
  br i1 %7, label %89, label %8

8:                                                ; preds = %0
  %9 = add nsw i32 %6, -1
  br label %10

10:                                               ; preds = %8, %84
  %11 = phi i64 [ 2, %8 ], [ %85, %84 ]
  %12 = phi i32 [ %9, %8 ], [ %88, %84 ]
  %13 = trunc i64 %11 to i32
  %14 = lshr exact i32 %13, 1
  %15 = icmp slt i32 %6, %13
  br i1 %15, label %84, label %16

16:                                               ; preds = %10
  %17 = zext i32 %14 to i64
  %18 = zext i32 %12 to i64
  br label %19

19:                                               ; preds = %16, %81
  %20 = phi i64 [ 0, %16 ], [ %82, %81 ]
  %21 = add nuw nsw i64 %20, %17
  %22 = trunc i64 %20 to i32
  %23 = shl i32 %22, 1
  %24 = trunc i64 %20 to i32
  br label %25

25:                                               ; preds = %19, %45
  %26 = phi i64 [ %20, %19 ], [ %47, %45 ]
  %27 = phi i32 [ 0, %19 ], [ %46, %45 ]
  %28 = getelementptr inbounds [500 x i8], [500 x i8]* %1, i64 0, i64 %26
  %29 = load i8, i8* %28, align 1, !tbaa !5
  %30 = trunc i64 %26 to i32
  %31 = xor i32 %30, -1
  %32 = add nsw i32 %13, %31
  %33 = add i32 %32, %23
  %34 = sext i32 %33 to i64
  %35 = getelementptr inbounds [500 x i8], [500 x i8]* %1, i64 0, i64 %34
  %36 = load i8, i8* %35, align 1, !tbaa !5
  %37 = icmp eq i8 %29, %36
  br i1 %37, label %38, label %45

38:                                               ; preds = %25
  %39 = add nsw i32 %27, 1
  %40 = sub nuw nsw i64 %26, %20
  %41 = getelementptr inbounds [500 x i8], [500 x i8]* %2, i64 0, i64 %40
  store i8 %29, i8* %41, align 1, !tbaa !5
  %42 = add i32 %32, %24
  %43 = sext i32 %42 to i64
  %44 = getelementptr inbounds [500 x i8], [500 x i8]* %2, i64 0, i64 %43
  store i8 %29, i8* %44, align 1, !tbaa !5
  br label %45

45:                                               ; preds = %25, %38
  %46 = phi i32 [ %39, %38 ], [ %27, %25 ]
  %47 = add nuw nsw i64 %26, 1
  %48 = icmp ult i64 %47, %21
  br i1 %48, label %25, label %49, !llvm.loop !8

49:                                               ; preds = %45
  %50 = icmp eq i32 %46, %14
  br i1 %50, label %51, label %81

51:                                               ; preds = %49
  %52 = call i64 @strlen(i8* noundef nonnull dereferenceable(1) %4) #9
  %53 = call nonnull align 8 dereferenceable(8) %"class.std::basic_ostream"* @_ZSt16__ostream_insertIcSt11char_traitsIcEERSt13basic_ostreamIT_T0_ES6_PKS3_l(%"class.std::basic_ostream"* nonnull align 8 dereferenceable(8) @_ZSt4cout, i8* nonnull %4, i64 %52)
  %54 = load i8*, i8** bitcast (%"class.std::basic_ostream"* @_ZSt4cout to i8**), align 8, !tbaa !10
  %55 = getelementptr i8, i8* %54, i64 -24
  %56 = bitcast i8* %55 to i64*
  %57 = load i64, i64* %56, align 8
  %58 = add nsw i64 %57, 240
  %59 = getelementptr inbounds i8, i8* bitcast (%"class.std::basic_ostream"* @_ZSt4cout to i8*), i64 %58
  %60 = bitcast i8* %59 to %"class.std::ctype"**
  %61 = load %"class.std::ctype"*, %"class.std::ctype"** %60, align 8, !tbaa !12
  %62 = icmp eq %"class.std::ctype"* %61, null
  br i1 %62, label %63, label %64

63:                                               ; preds = %51
  call void @_ZSt16__throw_bad_castv() #11
  unreachable

64:                                               ; preds = %51
  %65 = getelementptr inbounds %"class.std::ctype", %"class.std::ctype"* %61, i64 0, i32 8
  %66 = load i8, i8* %65, align 8, !tbaa !16
  %67 = icmp eq i8 %66, 0
  br i1 %67, label %71, label %68

68:                                               ; preds = %64
  %69 = getelementptr inbounds %"class.std::ctype", %"class.std::ctype"* %61, i64 0, i32 9, i64 10
  %70 = load i8, i8* %69, align 1, !tbaa !5
  br label %77

71:                                               ; preds = %64
  call void @_ZNKSt5ctypeIcE13_M_widen_initEv(%"class.std::ctype"* nonnull align 8 dereferenceable(570) %61)
  %72 = bitcast %"class.std::ctype"* %61 to i8 (%"class.std::ctype"*, i8)***
  %73 = load i8 (%"class.std::ctype"*, i8)**, i8 (%"class.std::ctype"*, i8)*** %72, align 8, !tbaa !10
  %74 = getelementptr inbounds i8 (%"class.std::ctype"*, i8)*, i8 (%"class.std::ctype"*, i8)** %73, i64 6
  %75 = load i8 (%"class.std::ctype"*, i8)*, i8 (%"class.std::ctype"*, i8)** %74, align 8
  %76 = call signext i8 %75(%"class.std::ctype"* nonnull align 8 dereferenceable(570) %61, i8 signext 10)
  br label %77

77:                                               ; preds = %68, %71
  %78 = phi i8 [ %70, %68 ], [ %76, %71 ]
  %79 = call nonnull align 8 dereferenceable(8) %"class.std::basic_ostream"* @_ZNSo3putEc(%"class.std::basic_ostream"* nonnull align 8 dereferenceable(8) @_ZSt4cout, i8 signext %78)
  %80 = call nonnull align 8 dereferenceable(8) %"class.std::basic_ostream"* @_ZNSo5flushEv(%"class.std::basic_ostream"* nonnull align 8 dereferenceable(8) %79)
  br label %81

81:                                               ; preds = %77, %49
  %82 = add nuw nsw i64 %20, 1
  %83 = icmp eq i64 %82, %18
  br i1 %83, label %84, label %19, !llvm.loop !18

84:                                               ; preds = %81, %10
  %85 = add nuw i64 %11, 2
  %86 = trunc i64 %85 to i32
  %87 = icmp sgt i32 %86, %6
  %88 = add i32 %12, -2
  br i1 %87, label %89, label %10, !llvm.loop !19

89:                                               ; preds = %84, %0
  call void @llvm.lifetime.end.p0i8(i64 500, i8* nonnull %4) #9
  call void @llvm.lifetime.end.p0i8(i64 500, i8* nonnull %3) #9
  ret i32 0
}

; Function Attrs: argmemonly mustprogress nofree nosync nounwind willreturn
declare void @llvm.lifetime.start.p0i8(i64 immarg, i8* nocapture) #4

; Function Attrs: argmemonly mustprogress nofree nounwind willreturn writeonly
declare void @llvm.memset.p0i8.i64(i8* nocapture writeonly, i8, i64, i1 immarg) #5

; Function Attrs: argmemonly mustprogress nofree nounwind readonly willreturn
declare i64 @strlen(i8* nocapture) local_unnamed_addr #6

; Function Attrs: argmemonly mustprogress nofree nosync nounwind willreturn
declare void @llvm.lifetime.end.p0i8(i64 immarg, i8* nocapture) #4

declare void @_ZSt17__istream_extractRSiPcl(%"class.std::basic_istream"* nonnull align 8 dereferenceable(16), i8*, i64) local_unnamed_addr #0

declare nonnull align 8 dereferenceable(8) %"class.std::basic_ostream"* @_ZSt16__ostream_insertIcSt11char_traitsIcEERSt13basic_ostreamIT_T0_ES6_PKS3_l(%"class.std::basic_ostream"* nonnull align 8 dereferenceable(8), i8*, i64) local_unnamed_addr #0

declare nonnull align 8 dereferenceable(8) %"class.std::basic_ostream"* @_ZNSo3putEc(%"class.std::basic_ostream"* nonnull align 8 dereferenceable(8), i8 signext) local_unnamed_addr #0

declare nonnull align 8 dereferenceable(8) %"class.std::basic_ostream"* @_ZNSo5flushEv(%"class.std::basic_ostream"* nonnull align 8 dereferenceable(8)) local_unnamed_addr #0

; Function Attrs: noreturn
declare void @_ZSt16__throw_bad_castv() local_unnamed_addr #7

declare void @_ZNKSt5ctypeIcE13_M_widen_initEv(%"class.std::ctype"* nonnull align 8 dereferenceable(570)) local_unnamed_addr #0

; Function Attrs: sspstrong uwtable
define internal void @_GLOBAL__sub_I_843.cpp() #8 section ".text.startup" {
  tail call void @_ZNSt8ios_base4InitC1Ev(%"class.std::ios_base::Init"* nonnull align 1 dereferenceable(1) @_ZStL8__ioinit)
  %1 = tail call i32 @__cxa_atexit(void (i8*)* bitcast (void (%"class.std::ios_base::Init"*)* @_ZNSt8ios_base4InitD1Ev to void (i8*)*), i8* getelementptr inbounds (%"class.std::ios_base::Init", %"class.std::ios_base::Init"* @_ZStL8__ioinit, i64 0, i32 0), i8* nonnull @__dso_handle) #9
  ret void
}


!llvm.module.flags = !{!0, !1, !2, !3}
!llvm.ident = !{!4}

!0 = !{i32 1, !"wchar_size", i32 4}
!1 = !{i32 7, !"PIC Level", i32 2}
!2 = !{i32 7, !"PIE Level", i32 2}
!3 = !{i32 7, !"uwtable", i32 1}
!4 = !{!"clang version 13.0.0"}
!5 = !{!6, !6, i64 0}
!6 = !{!"omnipotent char", !7, i64 0}
!7 = !{!"Simple C++ TBAA"}
!8 = distinct !{!8, !9}
!9 = !{!"llvm.loop.mustprogress"}
!10 = !{!11, !11, i64 0}
!11 = !{!"vtable pointer", !7, i64 0}
!12 = !{!13, !14, i64 240}
!13 = !{!"_ZTSSt9basic_iosIcSt11char_traitsIcEE", !14, i64 216, !6, i64 224, !15, i64 225, !14, i64 232, !14, i64 240, !14, i64 248, !14, i64 256}
!14 = !{!"any pointer", !6, i64 0}
!15 = !{!"bool", !6, i64 0}
!16 = !{!17, !6, i64 56}
!17 = !{!"_ZTSSt5ctypeIcE", !14, i64 16, !15, i64 24, !14, i64 32, !14, i64 40, !14, i64 48, !6, i64 56, !6, i64 57, !6, i64 313, !6, i64 569}
!18 = distinct !{!18, !9}
!19 = distinct !{!19, !9}
